target datalayout = "e-m:e-p270:32:32-p271:32:32-p272:64:64-i64:64-i128:128-f80:128-n8:16:32:64-S128"
target triple = "x86_64-pc-linux-gnu"

%"class.std::basic_string_view" = type { i64, ptr }
%"class.std::allocator" = type { i8 }
%"class.std::__cxx11::basic_string" = type { %"struct.std::__cxx11::basic_string<char>::_Alloc_hider", i64, %union.anon }
%"struct.std::__cxx11::basic_string<char>::_Alloc_hider" = type { ptr }
%union.anon = type { i64, [8 x i8] }
%"struct.std::__cxx11::basic_string<char>::__sv_wrapper" = type { %"class.std::basic_string_view" }

@_ZTIN21PXR_INTERNAL_NS_pegtl11parse_errorE = linkonce_odr constant { ptr, ptr, ptr } { ptr getelementptr inbounds (ptr, ptr @_ZTVN10__cxxabiv120__si_class_type_infoE, i64 2), ptr @_ZTSN21PXR_INTERNAL_NS_pegtl11parse_errorE, ptr @_ZTISt13runtime_error }, comdat, align 8
@.str.32 = private unnamed_addr constant [22 x i8] c"parse error matching \00", align 1
@.str.54 = private unnamed_addr constant [181 x i8] c"std::string_view PXR_INTERNAL_NS_pegtl::demangle() [T = PXR_INTERNAL_NS_pegtl::pad<pxrInternal_v0_24__pxrReserved__::(anonymous namespace)::PathExpr, PXR_INTERNAL_NS_pegtl::blank>]\00", align 1
@__const._ZN21PXR_INTERNAL_NS_pegtl8demangleINS_3padIN32pxrInternal_v0_24__pxrReserved__12_GLOBAL__N_18PathExprENS_5ascii5blankES6_EEEESt17basic_string_viewIcSt11char_traitsIcEEv.sv = private unnamed_addr constant %"class.std::basic_string_view" { i64 180, ptr @.str.54 }, align 8

; Function Attrs: mustprogress nounwind uwtable
define linkonce_odr void @_ZNSt17basic_string_viewIcSt11char_traitsIcEEC2EPKcm(ptr noundef nonnull align 8 dereferenceable(16) %0, ptr noundef %1, i64 noundef %2) unnamed_addr #2 comdat align 2 {
  %4 = alloca ptr, align 8
  %5 = alloca ptr, align 8
  %6 = alloca i64, align 8
  store ptr %0, ptr %4, align 8
  store ptr %1, ptr %5, align 8
  store i64 %2, ptr %6, align 8
  %7 = load ptr, ptr %4, align 8
  %8 = getelementptr inbounds nuw %"class.std::basic_string_view", ptr %7, i32 0, i32 0
  %9 = load i64, ptr %6, align 8
  store i64 %9, ptr %8, align 8
  %10 = getelementptr inbounds nuw %"class.std::basic_string_view", ptr %7, i32 0, i32 1
  %11 = load ptr, ptr %5, align 8
  store ptr %11, ptr %10, align 8
  ret void
}

; Function Attrs: mustprogress nounwind uwtable
define linkonce_odr noundef i64 @_ZNKSt17basic_string_viewIcSt11char_traitsIcEE4sizeEv(ptr noundef nonnull align 8 dereferenceable(16) %0) #2 comdat align 2 {
  %2 = alloca ptr, align 8
  store ptr %0, ptr %2, align 8
  %3 = load ptr, ptr %2, align 8
  %4 = getelementptr inbounds nuw %"class.std::basic_string_view", ptr %3, i32 0, i32 0
  %5 = load i64, ptr %4, align 8
  ret i64 %5
}

; Function Attrs: mustprogress nounwind uwtable
define linkonce_odr noundef ptr @_ZNKSt17basic_string_viewIcSt11char_traitsIcEE4dataEv(ptr noundef nonnull align 8 dereferenceable(16) %0) #2 comdat align 2 {
  %2 = alloca ptr, align 8
  store ptr %0, ptr %2, align 8
  %3 = load ptr, ptr %2, align 8
  %4 = getelementptr inbounds nuw %"class.std::basic_string_view", ptr %3, i32 0, i32 1
  %5 = load ptr, ptr %4, align 8
  ret ptr %5
}

; Function Attrs: mustprogress uwtable
define linkonce_odr void @_ZStplIcSt11char_traitsIcESaIcEENSt7__cxx1112basic_stringIT_T0_T1_EEPKS5_OS8_(ptr dead_on_unwind noalias writable sret(%"class.std::__cxx11::basic_string") align 8 %0, ptr noundef %1, ptr noundef nonnull align 8 dereferenceable(32) %2) #0 comdat {
  %4 = alloca ptr, align 8
  %5 = alloca ptr, align 8
  %6 = alloca ptr, align 8
  store ptr %0, ptr %4, align 8
  store ptr %1, ptr %5, align 8
  store ptr %2, ptr %6, align 8
  %7 = load ptr, ptr %6, align 8
  %8 = load ptr, ptr %5, align 8
  %9 = call noundef nonnull align 8 dereferenceable(32) ptr @_ZNSt7__cxx1112basic_stringIcSt11char_traitsIcESaIcEE6insertEmPKc(ptr noundef nonnull align 8 dereferenceable(32) %7, i64 noundef 0, ptr noundef %8)
  call void @_ZNSt7__cxx1112basic_stringIcSt11char_traitsIcESaIcEEC1EOS4_(ptr noundef nonnull align 8 dereferenceable(32) %0, ptr noundef nonnull align 8 dereferenceable(32) %9) #3
  ret void
}

; Function Attrs: mustprogress uwtable
define linkonce_odr void @_ZNSt7__cxx1112basic_stringIcSt11char_traitsIcESaIcEEC2ISt17basic_string_viewIcS2_EvEERKT_RKS3_(ptr noundef nonnull align 8 dereferenceable(32) %0, ptr noundef nonnull align 8 dereferenceable(16) %1, ptr noundef nonnull align 1 dereferenceable(1) %2) unnamed_addr #0 comdat align 2 {
  %4 = alloca ptr, align 8
  %5 = alloca ptr, align 8
  %6 = alloca ptr, align 8
  %7 = alloca %"struct.std::__cxx11::basic_string<char>::__sv_wrapper", align 8
  %8 = alloca %"class.std::basic_string_view", align 8
  %9 = alloca %"class.std::basic_string_view", align 8
  store ptr %0, ptr %4, align 8
  store ptr %1, ptr %5, align 8
  store ptr %2, ptr %6, align 8
  %10 = load ptr, ptr %4, align 8
  %11 = load ptr, ptr %5, align 8
  call void @llvm.memcpy.p0.p0.i64(ptr align 8 %9, ptr align 8 %11, i64 16, i1 false)
  %12 = getelementptr inbounds nuw { i64, ptr }, ptr %9, i32 0, i32 0
  %13 = load i64, ptr %12, align 8
  %14 = getelementptr inbounds nuw { i64, ptr }, ptr %9, i32 0, i32 1
  %15 = load ptr, ptr %14, align 8
  %16 = call { i64, ptr } @_ZNSt7__cxx1112basic_stringIcSt11char_traitsIcESaIcEE17_S_to_string_viewESt17basic_string_viewIcS2_E(i64 %13, ptr %15) #3
  %17 = getelementptr inbounds nuw { i64, ptr }, ptr %8, i32 0, i32 0
  %18 = extractvalue { i64, ptr } %16, 0
  store i64 %18, ptr %17, align 8
  %19 = getelementptr inbounds nuw { i64, ptr }, ptr %8, i32 0, i32 1
  %20 = extractvalue { i64, ptr } %16, 1
  store ptr %20, ptr %19, align 8
  %21 = getelementptr inbounds nuw { i64, ptr }, ptr %8, i32 0, i32 0
  %22 = load i64, ptr %21, align 8
  %23 = getelementptr inbounds nuw { i64, ptr }, ptr %8, i32 0, i32 1
  %24 = load ptr, ptr %23, align 8
  call void @_ZNSt7__cxx1112basic_stringIcSt11char_traitsIcESaIcEE12__sv_wrapperC1ESt17basic_string_viewIcS2_E(ptr noundef nonnull align 8 dereferenceable(16) %7, i64 %22, ptr %24) #3
  %25 = load ptr, ptr %6, align 8
  %26 = getelementptr inbounds nuw { i64, ptr }, ptr %7, i32 0, i32 0
  %27 = load i64, ptr %26, align 8
  %28 = getelementptr inbounds nuw { i64, ptr }, ptr %7, i32 0, i32 1
  %29 = load ptr, ptr %28, align 8
  call void @_ZNSt7__cxx1112basic_stringIcSt11char_traitsIcESaIcEEC2ENS4_12__sv_wrapperERKS3_(ptr noundef nonnull align 8 dereferenceable(32) %10, i64 %27, ptr %29, ptr noundef nonnull align 1 dereferenceable(1) %25)
  ret void
}

; Function Attrs: mustprogress nounwind uwtable
define internal { i64, ptr } @_ZN21PXR_INTERNAL_NS_pegtl8demangleINS_3padIN32pxrInternal_v0_24__pxrReserved__12_GLOBAL__N_18PathExprENS_5ascii5blankES6_EEEESt17basic_string_viewIcSt11char_traitsIcEEv() #2 {
  %1 = alloca %"class.std::basic_string_view", align 8
  %2 = alloca %"class.std::basic_string_view", align 8
  %3 = alloca ptr, align 8
  call void @llvm.memcpy.p0.p0.i64(ptr align 8 %2, ptr align 8 @__const._ZN21PXR_INTERNAL_NS_pegtl8demangleINS_3padIN32pxrInternal_v0_24__pxrReserved__12_GLOBAL__N_18PathExprENS_5ascii5blankES6_EEEESt17basic_string_viewIcSt11char_traitsIcEEv.sv, i64 16, i1 false)
  store ptr getelementptr (i8, ptr @.str.54, i64 54), ptr %3, align 8
  %4 = call noundef ptr @_ZNKSt17basic_string_viewIcSt11char_traitsIcEE4dataEv(ptr noundef nonnull align 8 dereferenceable(16) %2) #3
  %5 = call noundef i64 @_ZNKSt17basic_string_viewIcSt11char_traitsIcEE4sizeEv(ptr noundef nonnull align 8 dereferenceable(16) %2) #3
  %6 = getelementptr inbounds i8, ptr %4, i64 %5
  %7 = ptrtoint ptr %6 to i64
  %8 = sub i64 %7, ptrtoint (ptr getelementptr (i8, ptr @.str.54, i64 54) to i64)
  %9 = sub nsw i64 %8, 3
  call void @_ZNSt17basic_string_viewIcSt11char_traitsIcEEC2EPKcm(ptr noundef nonnull align 8 dereferenceable(16) %1, ptr noundef getelementptr inbounds (i8, ptr getelementptr (i8, ptr @.str.54, i64 54), i64 2), i64 noundef %9) #3
  %10 = load { i64, ptr }, ptr %1, align 8
  ret { i64, ptr } %10
}

; Function Attrs: mustprogress noreturn uwtable
define internal void @_ZN21PXR_INTERNAL_NS_pegtl6normalINS_3padIN32pxrInternal_v0_24__pxrReserved__12_GLOBAL__N_18PathExprENS_5ascii5blankES6_EEE5raiseINS_12string_inputILNS_13tracking_modeE0ENS5_3eol7lf_crlfENSt7__cxx1112basic_stringIcSt11char_traitsIcESaIcEEEEEJRNS2_19Sdf_PathExprBuilderEEEEvRKT_DpOT0_(ptr noundef nonnull align 8 dereferenceable(120) %0, ptr noundef nonnull align 8 dereferenceable(24) %1) #14 align 2 personality ptr @__gxx_personality_v0 {
  %3 = alloca ptr, align 8
  %4 = alloca ptr, align 8
  %5 = alloca %"class.std::__cxx11::basic_string", align 8
  %6 = alloca %"class.std::__cxx11::basic_string", align 8
  %7 = alloca %"class.std::basic_string_view", align 8
  %8 = alloca %"class.std::allocator", align 1
  %9 = alloca ptr, align 8
  %10 = alloca i32, align 4
  %11 = alloca i1, align 1
  store ptr %0, ptr %3, align 8
  store ptr %1, ptr %4, align 8
  store i1 true, ptr %11, align 1
  %12 = call ptr @__cxa_allocate_exception(i64 32) #3
  %13 = call { i64, ptr } @_ZN21PXR_INTERNAL_NS_pegtl8demangleINS_3padIN32pxrInternal_v0_24__pxrReserved__12_GLOBAL__N_18PathExprENS_5ascii5blankES6_EEEESt17basic_string_viewIcSt11char_traitsIcEEv() #3
  %14 = getelementptr inbounds nuw { i64, ptr }, ptr %7, i32 0, i32 0
  %15 = extractvalue { i64, ptr } %13, 0
  store i64 %15, ptr %14, align 8
  %16 = getelementptr inbounds nuw { i64, ptr }, ptr %7, i32 0, i32 1
  %17 = extractvalue { i64, ptr } %13, 1
  store ptr %17, ptr %16, align 8
  call void @_ZNSaIcEC1Ev(ptr noundef nonnull align 1 dereferenceable(1) %8) #3
  invoke void @_ZNSt7__cxx1112basic_stringIcSt11char_traitsIcESaIcEEC2ISt17basic_string_viewIcS2_EvEERKT_RKS3_(ptr noundef nonnull align 8 dereferenceable(32) %6, ptr noundef nonnull align 8 dereferenceable(16) %7, ptr noundef nonnull align 1 dereferenceable(1) %8)
          to label %18 unwind label %22

18:                                               ; preds = %2
  invoke void @_ZStplIcSt11char_traitsIcESaIcEENSt7__cxx1112basic_stringIT_T0_T1_EEPKS5_OS8_(ptr dead_on_unwind writable sret(%"class.std::__cxx11::basic_string") align 8 %5, ptr noundef @.str.32, ptr noundef nonnull align 8 dereferenceable(32) %6)
          to label %19 unwind label %26

19:                                               ; preds = %18
  %20 = load ptr, ptr %3, align 8
  invoke void @_ZN21PXR_INTERNAL_NS_pegtl11parse_errorC2INS_12string_inputILNS_13tracking_modeE0ENS_5ascii3eol7lf_crlfENSt7__cxx1112basic_stringIcSt11char_traitsIcESaIcEEEEEEERKSC_RKT_(ptr noundef nonnull align 8 dereferenceable(32) %12, ptr noundef nonnull align 8 dereferenceable(32) %5, ptr noundef nonnull align 8 dereferenceable(120) %20)
          to label %21 unwind label %30

21:                                               ; preds = %19
  store i1 false, ptr %11, align 1
  invoke void @__cxa_throw(ptr %12, ptr @_ZTIN21PXR_INTERNAL_NS_pegtl11parse_errorE, ptr @_ZN21PXR_INTERNAL_NS_pegtl11parse_errorD2Ev) #18
          to label %44 unwind label %30

22:                                               ; preds = %2
  %23 = landingpad { ptr, i32 }
          cleanup
  %24 = extractvalue { ptr, i32 } %23, 0
  store ptr %24, ptr %9, align 8
  %25 = extractvalue { ptr, i32 } %23, 1
  store i32 %25, ptr %10, align 4
  br label %35

26:                                               ; preds = %18
  %27 = landingpad { ptr, i32 }
          cleanup
  %28 = extractvalue { ptr, i32 } %27, 0
  store ptr %28, ptr %9, align 8
  %29 = extractvalue { ptr, i32 } %27, 1
  store i32 %29, ptr %10, align 4
  br label %34

30:                                               ; preds = %21, %19
  %31 = landingpad { ptr, i32 }
          cleanup
  %32 = extractvalue { ptr, i32 } %31, 0
  store ptr %32, ptr %9, align 8
  %33 = extractvalue { ptr, i32 } %31, 1
  store i32 %33, ptr %10, align 4
  call void @_ZNSt7__cxx1112basic_stringIcSt11char_traitsIcESaIcEED1Ev(ptr noundef nonnull align 8 dereferenceable(32) %5) #3
  br label %34

34:                                               ; preds = %30, %26
  call void @_ZNSt7__cxx1112basic_stringIcSt11char_traitsIcESaIcEED1Ev(ptr noundef nonnull align 8 dereferenceable(32) %6) #3
  br label %35

35:                                               ; preds = %34, %22
  call void @_ZNSaIcED1Ev(ptr noundef nonnull align 1 dereferenceable(1) %8) #3
  %36 = load i1, ptr %11, align 1
  br i1 %36, label %37, label %38

37:                                               ; preds = %35
  call void @__cxa_free_exception(ptr %12) #3
  br label %38

38:                                               ; preds = %37, %35
  br label %39

39:                                               ; preds = %38
  %40 = load ptr, ptr %9, align 8
  %41 = load i32, ptr %10, align 4
  %42 = insertvalue { ptr, i32 } poison, ptr %40, 0
  %43 = insertvalue { ptr, i32 } %42, i32 %41, 1
  resume { ptr, i32 } %43

44:                                               ; preds = %21
  unreachable
}