; Function Attrs: mustprogress noreturn uwtable
define internal fastcc void @_ZN21PXR_INTERNAL_NS_pegtl6normalINS_3padIN32pxrInternal_v0_24__pxrReserved__12_GLOBAL__N_18PathExprENS_5ascii5blankES6_EEE5raiseINS_12string_inputILNS_13tracking_modeE0ENS5_3eol7lf_crlfENSt7__cxx1112basic_stringIcSt11char_traitsIcESaIcEEEEEJRNS2_19Sdf_PathExprBuilderEEEEvRKT_DpOT0_(ptr noundef nonnull align 8 dereferenceable(120) %0) unnamed_addr #15 align 2 personality ptr @__gxx_personality_v0 {
  %2 = alloca %"struct.std::__cxx11::basic_string<char>::__sv_wrapper", align 8
  %3 = alloca %"class.std::__cxx11::basic_string", align 8
  %4 = alloca %"class.std::__cxx11::basic_string", align 8
  %5 = alloca %"class.std::allocator", align 1
  %6 = tail call ptr @__cxa_allocate_exception(i64 32) #24
  call void @_ZNSaIcEC1Ev(ptr noundef nonnull align 1 dereferenceable(1) %5) #24
  call void @llvm.lifetime.start.p0(i64 16, ptr nonnull %2)
  %7 = call { i64, ptr } @_ZNSt7__cxx1112basic_stringIcSt11char_traitsIcESaIcEE17_S_to_string_viewESt17basic_string_viewIcS2_E(i64 123, ptr nonnull getelementptr inbounds (i8, ptr @.str.54, i64 56)) #24
  %8 = extractvalue { i64, ptr } %7, 0
  %9 = extractvalue { i64, ptr } %7, 1
  call void @_ZNSt7__cxx1112basic_stringIcSt11char_traitsIcESaIcEE12__sv_wrapperC1ESt17basic_string_viewIcS2_E(ptr noundef nonnull align 8 dereferenceable(16) %2, i64 %8, ptr %9) #24
  %10 = load i64, ptr %2, align 8
  %11 = getelementptr inbounds nuw i8, ptr %2, i64 8
  %12 = load ptr, ptr %11, align 8
  invoke void @_ZNSt7__cxx1112basic_stringIcSt11char_traitsIcESaIcEEC2ENS4_12__sv_wrapperERKS3_(ptr noundef nonnull align 8 dereferenceable(32) %4, i64 %10, ptr %12, ptr noundef nonnull align 1 dereferenceable(1) %5)
          to label %13 unwind label %.thread

13:                                               ; preds = %1
  call void @llvm.lifetime.end.p0(i64 16, ptr nonnull %2)
  %14 = invoke noundef nonnull align 8 dereferenceable(32) ptr @_ZNSt7__cxx1112basic_stringIcSt11char_traitsIcESaIcEE6insertEmPKc(ptr noundef nonnull align 8 dereferenceable(32) %4, i64 noundef 0, ptr noundef nonnull @.str.32)
          to label %15 unwind label %18

15:                                               ; preds = %13
  call void @_ZNSt7__cxx1112basic_stringIcSt11char_traitsIcESaIcEEC1EOS4_(ptr noundef nonnull align 8 dereferenceable(32) %3, ptr noundef nonnull align 8 dereferenceable(32) %14) #24
  invoke void @_ZN21PXR_INTERNAL_NS_pegtl11parse_errorC2INS_12string_inputILNS_13tracking_modeE0ENS_5ascii3eol7lf_crlfENSt7__cxx1112basic_stringIcSt11char_traitsIcESaIcEEEEEEERKSC_RKT_(ptr noundef nonnull align 8 dereferenceable(32) %6, ptr noundef nonnull align 8 dereferenceable(32) %3, ptr noundef nonnull align 8 dereferenceable(120) %0)
          to label %16 unwind label %20

16:                                               ; preds = %15
  invoke void @__cxa_throw(ptr nonnull %6, ptr nonnull @_ZTIN21PXR_INTERNAL_NS_pegtl11parse_errorE, ptr nonnull @_ZN21PXR_INTERNAL_NS_pegtl11parse_errorD2Ev) #27
          to label %25 unwind label %20

.thread:                                          ; preds = %1
  %17 = landingpad { ptr, i32 }
          cleanup
  call void @_ZNSaIcED1Ev(ptr noundef nonnull align 1 dereferenceable(1) %5) #24
  br label %23

18:                                               ; preds = %13
  %19 = landingpad { ptr, i32 }
          cleanup
  br label %22

20:                                               ; preds = %16, %15
  %.0 = phi i1 [ false, %16 ], [ true, %15 ]
  %21 = landingpad { ptr, i32 }
          cleanup
  call void @_ZNSt7__cxx1112basic_stringIcSt11char_traitsIcESaIcEED1Ev(ptr noundef nonnull align 8 dereferenceable(32) %3) #24
  br label %22

22:                                               ; preds = %18, %20
  %.pn = phi { ptr, i32 } [ %21, %20 ], [ %19, %18 ]
  %.2 = phi i1 [ %.0, %20 ], [ true, %18 ]
  call void @_ZNSt7__cxx1112basic_stringIcSt11char_traitsIcESaIcEED1Ev(ptr noundef nonnull align 8 dereferenceable(32) %4) #24
  call void @_ZNSaIcED1Ev(ptr noundef nonnull align 1 dereferenceable(1) %5) #24
  br i1 %.2, label %23, label %24

23:                                               ; preds = %.thread, %22
  %.pn.pn4 = phi { ptr, i32 } [ %17, %.thread ], [ %.pn, %22 ]
  call void @__cxa_free_exception(ptr %6) #24
  br label %24

24:                                               ; preds = %22, %23
  %.pn.pn3 = phi { ptr, i32 } [ %.pn, %22 ], [ %.pn.pn4, %23 ]
  resume { ptr, i32 } %.pn.pn3

25:                                               ; preds = %16
  unreachable
}